; Function Attrs: mustprogress noreturn uwtable
define hidden void @_ZNK19OpenColorIO_v2_5dev5OpCPU18getDynamicPropertyENS_19DynamicPropertyTypeE(ptr dead_on_unwind noalias readnone sret(%"class.std::shared_ptr") align 8 captures(none) %0, ptr nonnull readnone align 8 captures(none) %1, i32 %2) unnamed_addr #4 align 2 personality ptr @__gxx_personality_v0 {
  %4 = tail call ptr @__cxa_allocate_exception(i64 16) #26
  invoke void @_ZN19OpenColorIO_v2_5dev9ExceptionC1EPKc(ptr noundef nonnull align 8 dereferenceable(16) %4, ptr noundef nonnull @.str)
          to label %5 unwind label %6

5:                                                ; preds = %3
  tail call void @__cxa_throw(ptr nonnull %4, ptr nonnull @_ZTIN19OpenColorIO_v2_5dev9ExceptionE, ptr nonnull @_ZN19OpenColorIO_v2_5dev9ExceptionD1Ev) #27
  unreachable

6:                                                ; preds = %3
  %7 = landingpad { ptr, i32 }
          cleanup
  tail call void @__cxa_free_exception(ptr nonnull %4) #26
  resume { ptr, i32 } %7
}